(dp1
S'edited_date'
p2
(dp3
S'type'
p4
S'datetime'
p5
sS'sortable'
p6
I6
sS'sql'
p7
S'TIMESTAMP'
p8
ssS'tr_date'
p9
(dp10
g4
g5
sg6
I2
sg7
S'TIMESTAMP'
p11
ssS'requested_by'
p12
(dp13
g4
S'string'
p14
sg6
I3
sg7
S'CHAR(512)'
p15
ssS'created_date'
p16
(dp17
g4
g5
sg6
I5
sg7
S'TIMESTAMP'
p18
ssS'remarks'
p19
(dp20
g4
S'text'
p21
sg6
I4
sg7
S'TEXT'
p22
ssS'id'
p23
(dp24
g4
g23
sg6
I1
sg7
S'INTEGER PRIMARY KEY AUTOINCREMENT'
p25
ss.