(dp1
S'item_id'
p2
(dp3
S'type'
p4
S'reference item'
p5
sS'sortable'
p6
I3
sS'sql'
p7
S'INTEGER REFERENCES item(id) ON DELETE CASCADE'
p8
ssS'purchase_request_id'
p9
(dp10
g4
S'reference purchase_request'
p11
sg6
I2
sg7
S'INTEGER REFERENCES purchase_request(id) ON DELETE CASCADE'
p12
ssS'id'
p13
(dp14
g4
g13
sg6
I1
sg7
S'INTEGER PRIMARY KEY AUTOINCREMENT'
p15
ssS'qty'
p16
(dp17
g4
S'integer'
p18
sg6
I4
sg7
S'INTEGER'
p19
ss.